(lp0
V-ps8odUxZpA
p1
aV04qr0NR13pk
p2
aV13fGMo9BjmA
p3
aV17k17LfFrCk
p4
aV1Ikys1s1x9A
p5
aV4asJyHFZXQM
p6
aV53zhiWF4DWQ
p7
aV5P3pRi5W5o0
p8
aV68QXdcEPKY4
p9
aV7fXWBEiiOOQ
p10
aV7jel9uss0P4
p11
aV7m59LjRBHUk
p12
aV83NDtFnEnl0
p13
aV8Gk1Mx9OxgU
p14
aV92FJBoa2SOw
p15
aV9L2mBX8-6v0
p16
aV9LI_bfx85EE
p17
aV9uKYLh2Fl5s
p18
aV9Z0xvgfBwDQ
p19
aVAGuydmB_qbg
p20
aVApZHaO7E934
p21
aVBF_e9eWXQsA
p22
aVlbL7HpnetTI
p23
aVloYtV81sdu0
p24
aVLt4QHZmD5zQ
p25
aVm9x92cF77GQ
p26
aVMMh6pSkM5FY
p27
aVny8ADw3j0eI
p28
aVONdcRgvuyLY
p29
aVPlAF7nPYAhQ
p30
aVPmOOmBLLMG4
p31
aVpspwmVM0HUc
p32
aVpwwyefQcX_k
p33
aVq6VJH0kbo6U
p34
aVqNNXT7D08I8
p35
aVbO_ymhH5xM8
p36
aVc8JmsZCKVfg
p37
aVcmzIX9v-4DI
p38
aVCUzpgkwPn2k
p39
aVD0880RtRUkw
p40
aVddiVKGu12zQ
p41
aVDSnuTwEbJ5M
p42
aVDUTgvQwxEVE
p43
aVeALaeCXx9S8
p44
aVeYV05EU-aqs
p45
aVfA9ldE6sshQ
p46
aVFiIgQsMmqAM
p47
aVvIXPUeIzwv8
p48
aVvXg_x4QXPz0
p49
aVwcyOFffscnA
p50
aVwkDZS25nZ6Y
p51
aVX4agW_Xldyc
p52
aVXb474rQ3mJk
p53
aVXDzY1zeqFaA
p54
aVXE21dUnxabk
p55
aVxE6AVriOUCo
p56
aVxtl37yN26wQ
p57
aVyfQf55XxKes
p58
aVygFakLxMYCI
p59
aVyKSOOKA-cNE
p60
aVyS15Hb-ezoM
p61
aVZAK3Vlqf2tg
p62
aVZhkMzuVhEjU
p63
aVznCkfJPn90Y
p64
aVZzqFsvg0KBE
p65
aV_fKtsmt2-00
p66
aVfrLwm7YUBKY
p67
aVge7OyKgjhRk
p68
aVGG2-8pDqaqQ
p69
aVgRrRAz7bLUI
p70
aVgUh9DgfJnNA
p71
aVHccb0_q3aNk
p72
aVIBeTVEhFpNA
p73
aVIgyUPk_uJhQ
p74
aVINkJSLJvXaU
p75
aViQPjRgjLwnk
p76
aVjg1pjsCOnCA
p77
aVjqwECPz4kFg
p78
aVKDVXHANg0oA
p79
aVksMO-HGibqs
p80
aVKXR4DZapc04
p81
aVkY80y5jxuZo
p82
aVR5fhG8vZdGQ
p83
aVR9xBdUPW1mo
p84
aVRg7wOsI7Rag
p85
aVRNxX_LY35iY
p86
aVrVWZvgNzGXw
p87
aVSKmPyP0vsIU
p88
aVsNRxCrpPUTY
p89
aVtPUQzSyFpek
p90
aVTSDiy7dfdCU
p91
aVu5Lpb3a6Rcg
p92
aVUdriQQ3Cxuc
p93
aVULrNC82xVA0
p94
aVUzph32isvAk
p95
aVbh2G60oJtH8
p96
aVfnA6cxuZE30
p97
aVL4E9GJFJy2A
p98
aVR2RUXEmXIvc
p99
aVviFLA_KZK60
p100
a.