(lp0
V0MOS_DG90wg
p1
aV350tD8E7htM
p2
aVB3NGN4t4hm4
p3
aVCAe-06mUHkI
p4
aVehs9BrhvDLs
p5
aVesCWmC5B64U
p6
aVfdWMTMjzaik
p7
aVfe7dsMVXfmo
p8
aVfKnKaNQfANw
p9
aVfMjavRu4v5c
p10
aVfoBhpQRiQ7I
p11
aVfUCvPXRUMc4
p12
aVg1JdTa6vCQE
p13
aVg5FNjyaLfC8
p14
aVgf4JkMk_tAg
p15
aVgStrGOpNkmQ
p16
aVhJi9kZPoa4M
p17
aVpchPUVYgCJM
p18
aVpR9Hkm3u8lc
p19
aVpvlroEvrFZY
p20
aVq4aVFzDNwDM
p21
aVqJc80WlWDCw
p22
aVqtnrg7K5G30
p23
aVr9TCsQkANaY
p24
aVrnh3d905Zjc
p25
aVRRMnOd5yF1U
p26
aVrZ8SVlZDN28
p27
aVst_hE-2Cy0Y
p28
aVszN3bLF1oP4
p29
aVtDvBwPzJ7dY
p30
aVtIMqrAq4e38
p31
aVtwkiB0tGuVo
p32
aVuCDY6-zb6yw
p33
aVugN6on2xpbc
p34
aVuiZS-MiIpac
p35
aVuoBmXZsqc1g
p36
aVuPT0UQ-4gog
p37
aVuSuMZJreXZ8
p38
aVV1vb0g7uzpo
p39
aVv2JVR0mAzjQ
p40
aVvbCYr7aYJss
p41
aVvKU90BSHqHk
p42
aVwM-gmRbOyO4
p43
aVxs6hcrqvxvU
p44
aVxWd4RmnIlVU
p45
aVy8b-nTp3itw
p46
aVyD94CV7kLHE
p47
aVZp9ElcpwqIM
p48
aVzRm40vKIFUA
p49
aVzUppwdpVCB8
p50
aVzyZ64Ef-yaY
p51
aVzZGlGMnHHUE
p52
aV_nFn67EnvNo
p53
aVi1hK17RX95c
p54
aVovOh58UBWOs
p55
aVuCRpIKH1cAA
p56
aViItzJc-NHI4
p57
aVizzlN2zC8PU
p58
aVj-A44wbdiRs
p59
aVjoC5MvzO1_w
p60
aVjRiQX9TsiyQ
p61
aVJttSo9WiiM8
p62
aVkj58hRUe05M
p63
aVkk0ieEGMcFo
p64
aVk_b1dn9EcLU
p65
aVml7GRec2JZ4
p66
aVMldum9YGNEs
p67
aVmSLAF_DjiDU
p68
aVnGey312c-qc
p69
aVnnVHXjJHIoo
p70
aVNn__9hLJKAk
p71
aVn_6cb_tbmmg
p72
aVO-ePUhJ47eQ
p73
aVo0B5vuAYk94
p74
aVod_tb2CPGIU
p75
aVoeKuFs0KxO8
p76
aVoF-xexlfjTw
p77
aVojYwul7-7tA
p78
a.