(lp0
Va771rJXCWiA
p1
aVaCkxIWUNCb0
p2
aVAjjRGzuAtUs
p3
aVajyMSELgRF4
p4
aVb0a-14TcSFM
p5
aVb2LLSrlKr3c
p6
aVBe5n_PompuM
p7
aVbJfuMETQLqs
p8
aVbSFF8GAwi3Y
p9
aVC-BgDDL_chU
p10
aVC587HlUbjPY
p11
aVcK8n54YiabE
p12
aVcLU2k-8irk8
p13
aVcvlvq7WeJUI
p14
aVd3pf7CLOKpM
p15
aVDAR6a1MI3Ek
p16
aVDCPcgJH8g88
p17
aVpla0BK4fA5I
p18
aVPrl-G7q6OeA
p19
aVPu5RohNldls
p20
aVPzuzo6K3Vuo
p21
aVp_MqibKoxkY
p22
aVQpMAguv7SYM
p23
aVQt-YnRN08m4
p24
aVqunL_2XlPYs
p25
aVqXGPPRhDU7E
p26
aVr0hshvl5LTE
p27
aVr5xW3NhdjqI
p28
aVRbM2zHPBYT4
p29
aVRBvrjfbOHy0
p30
aVh8CCPHRIZ10
p31
aVHadGJuemSWk
p32
aVhm4RSpjuxuM
p33
aVhWeAusz4JOg
p34
aVhZg6urFNLN0
p35
aVI4Ebrq0m5Bk
p36
aVi4jKl5aqll8
p37
aVI8UWiM-fGU8
p38
aViG85HmxCOgs
p39
aViMmS8ObCMbA
p40
aVitmSlqDN20I
p41
aVIyZRbLaHPCY
p42
aVjXRoO06aACQ
p43
aVJXTrtreDNls
p44
aVK94RfmFKmDQ
p45
aVKBslRnu6HVU
p46
aVkdXOgmtnExA
p47
aVKoa1986K9iM
p48
aVKQfcLqtc6ow
p49
aVkWI3cUuqrsQ
p50
aVKw_HC7f-5v0
p51
aVviOkvmWavz0
p52
aVVjR5EVUGvIA
p53
aVVLBScelwiQE
p54
aVvoCPzlDrVKk
p55
aVvs2Cw-jhp1k
p56
aVvuvkJ1dM5vI
p57
aVvV8lh64-y2k
p58
aVW3NlpNBgeJ0
p59
aVW5w7FJeukBQ
p60
aVw6AdaT8WyDE
p61
aVwdI9XDuFVsc
p62
aVWGbWgKWqtf0
p63
aVLpt2u1ilpuw
p64
aVlYmHId9kJP4
p65
aVmVUA9kEjeBg
p66
aVN0QWrSzkgoo
p67
aVN4MNlcbhE_A
p68
aVnAXJLIt1p-E
p69
aVnDHAFGPNiio
p70
aVNfqMuFg-dJw
p71
aVnUr_YNRYdyU
p72
aVnYv7tShfIj8
p73
aVnzydKdyAjps
p74
aVo9fXYQjwR0w
p75
aVOI6UXvcnnTA
p76
aVonz4QH_aJK8
p77
aVoVGHA3h64cg
p78
aVoZf2KbV8bPA
p79
aVP-OWHhypkV0
p80
aVDp6MZupUq78
p81
aVdPBM1ePZhPU
p82
aVDXH6HmxxykU
p83
aVEb9vfFaV7UQ
p84
aVEcJJcpTGJSU
p85
aVEH4yBh6CeII
p86
aVeMrEVCcrfMk
p87
aVEs7orfYUc3w
p88
aVewUIJfMhVeU
p89
aVf4Najhjp18g
p90
aVFAIy9GFYdnk
p91
aVFh7yaYE-owg
p92
aVFiBRDW6l3bU
p93
aVfNpAPe5B-I0
p94
aVFp5WO-XzEEU
p95
aVFQSWXf4nrto
p96
aVFuxN11gEQFE
p97
aVg3X9M2dLOM4
p98
aVGHPJdqgsJ9g
p99
aVGLqLBEF1FnU
p100
aVgWCBS9DTb3Y
p101
aVDmgxfe8JtYg
p102
aVH5hjmXQkIS0
p103
aVlbfrhIGILxo
p104
aVpcsxadq29eU
p105
aVrh1KKsWCrJw
p106
aVvch3zSZNzhI
p107
aVWj50FQd0Rks
p108
aVRQieoqCLWDo
p109
aVSBO3cQ5pC-w
p110
aVsmxacuFINFs
p111
aVsSKXK156794
p112
aVsWud9EBWs1g
p113
aVt0yA6NVE5Zg
p114
aVTanfGb4iF1k
p115
aVTDRYNRIPEmM
p116
aVtn5nw5zQM2Q
p117
aVttkQsGh1oR0
p118
aVUEJLYaQzPvc
p119
aVugy3pQWSUGo
p120
aVUjjRio6Ff4g
p121
aVuR3WqEBnklY
p122
aVut-vp-jnqVU
p123
aVUTs4n2COINA
p124
aVVaKyI5hz1Vk
p125
aVWLWIp6MEjZs
p126
aVWXCPReN_bpQ
p127
aVX0jq1Mm_D_c
p128
aVXmfJNOWqA18
p129
aVxN7VLcfq6K8
p130
aVxSe7aspSvCk
p131
aVY67Vb5mdMGg
p132
aVY89p8SCNXlI
p133
aVyH70s5J6G-Y
p134
aVyk9E5a7Po70
p135
aVzDGYR2Zd6MI
p136
aVzF_aLlBRpYM
p137
aVzi7kcknBAf8
p138
aVZN7a1RVKZxA
p139
a.