(lp0
V-c1f1_CgOTw
p1
aV-q0t6-doii8
p2
aV09HEa4C5Nks
p3
aV0g3ULRoYNDk
p4
aV0I32opf1nvc
p5
aV2B-5ylZ2cu0
p6
aV2dZoCvR3-No
p7
aV3gT26nELiio
p8
aV43tI4qcB_RY
p9
aV4DQeY6QKL6U
p10
aV5Dwblild-Z0
p11
aV5w6f4rZrWg8
p12
aV7fB5FkbudxY
p13
aV7yyCsYufafk
p14
aV8sgWmAfXl-U
p15
aVNw-eO1anjB0
p16
aVo992Ed3PyYw
p17
aVoAK4CasvtkM
p18
aVokUXdewvmeE
p19
aVpm9pmk7ySx8
p20
aVPVJNPiDi3II
p21
aVQ4GZxWUixzQ
p22
aVQ7IIxyX2hMY
p23
aVqcZvN7gW6Mk
p24
aVri0GrKud1yc
p25
aVrJKzhjLEJw8
p26
aVrRni1SZlw18
p27
aVrUX_fR9b0rE
p28
aVRxKmvaGgXPc
p29
aVsdmsQfzUBkM
p30
aVseJmEb0fcBA
p31
aVSKK7N33-JeQ
p32
aVSNxyWQbREiM
p33
aVssvjghB30HU
p34
aVtm_2U3USqzc
p35
aVTQ70Wk0ZMH0
p36
aVUBe1GC6PENM
p37
aVueOr_XlKSJY
p38
aVUEu_BIRVX5o
p39
aVuRgdPxKSLGM
p40
aVv5naJtm0Eys
p41
aVV6u5B-LW6Q8
p42
aVVE3XoBjJOW0
p43
aVVJ8R8TVvl9I
p44
aVW3Nb1AZTOGc
p45
aVwvOrdSmxfo8
p46
aVWXCYK_jKP-s
p47
aVXHV2yX4OLy0
p48
aVxJUyFkWyo-k
p49
aVge0vt31PLXA
p50
aVgGm9Qb26pzY
p51
aVhbZjevKUPo0
p52
aVheCVR7kKyRw
p53
aVHMwTunwPgno
p54
aVIHv5pZD5Kpc
p55
aViRvD2MQPQtM
p56
aVItPvRoI4jHU
p57
aVIxz4hJKQlPs
p58
aVIy8QfNyQedQ
p59
aVI_oYJ7OO5hs
p60
aVJ3dUrFrY59s
p61
aVJvZUw5KpAXA
p62
aVk6SKJsEs2sM
p63
aVkyadM_hb1l8
p64
aVLTXyIRKo6Dw
p65
aVmct3OxtkHHE
p66
aVaKucYDnjr5Q
p67
aVa_fIwB7-6es
p68
aVbA-WxmPDEZs
p69
aVbx7yNa_lEMU
p70
aVDD9WFAj0DAQ
p71
aVdduexq6Q1WY
p72
aVDfKj5KqkbBg
p73
aVDJM2_aeWN5s
p74
aVDPRQQ-XcetM
p75
aVDtBycNdCo0A
p76
aVePpV_rI51PY
p77
aVez_oMgF_jwo
p78
aVFOy0MrADOLc
p79
aVfSMTwktEc9o
p80
aVxtVlJnSo1NI
p81
aVXyYI6dx3G1U
p82
aVxzTTwh0f0pM
p83
aVYd5PwQHBYuU
p84
aVyjG6WekeSow
p85
aVYRhR6QlWmJQ
p86
aVZFK_P6kfQAo
p87
aVZp1PY7JA41s
p88
aVzSbdJ-cRaj0
p89
aVzSBHK5gULoE
p90
aV_cm_GQgcUvs
p91
aV_JYoPR28FeU
p92
aV_XKNHxuMG2Y
p93
aV93a6qFdZLAY
p94
aVGbyfTezTYC4
p95
aVMwupx_UsGXM
p96
aVu27qrdmystg
p97
aVXs12tlD0LZk
p98
a.